target datalayout = "e-m:e-p270:32:32-p271:32:32-p272:64:64-i64:64-i128:128-f80:128-n8:16:32:64-S128"
target triple = "x86_64-pc-linux-gnu"

%"class.base::BasicStringPiece" = type { ptr, i64 }
%"class.net::HpackInputStream" = type <{ %"class.base::BasicStringPiece", i64, i32, i32, i8, [7 x i8] }>
%"class.logging::CheckOpResult" = type { ptr }
%"class.logging::LogMessage" = type <{ i32, [4 x i8], %"class.std::__cxx11::basic_ostringstream", i64, ptr, i32, [4 x i8] }>
%"class.std::__cxx11::basic_ostringstream" = type { %"class.std::basic_ostream.base", %"class.std::__cxx11::basic_stringbuf", %"class.std::basic_ios" }
%"class.std::basic_ostream.base" = type { ptr }
%"class.std::__cxx11::basic_stringbuf" = type { %"class.std::basic_streambuf", i32, %"class.std::__cxx11::basic_string" }
%"class.std::basic_streambuf" = type { ptr, ptr, ptr, ptr, ptr, ptr, ptr, %"class.std::locale" }
%"class.std::locale" = type { ptr }
%"class.std::__cxx11::basic_string" = type { %"struct.std::__cxx11::basic_string<char>::_Alloc_hider", i64, %union.anon }
%"struct.std::__cxx11::basic_string<char>::_Alloc_hider" = type { ptr }
%union.anon = type { i64, [8 x i8] }
%"class.std::basic_ios" = type { %"class.std::ios_base", ptr, i8, i8, ptr, ptr, ptr, ptr }
%"class.std::ios_base" = type { ptr, i64, i64, i32, i32, i32, ptr, %"struct.std::ios_base::_Words", [8 x %"struct.std::ios_base::_Words"], i32, ptr, %"class.std::locale" }
%"struct.std::ios_base::_Words" = type { ptr, i64 }

@.str = private unnamed_addr constant [134 x i8] c"generated/home/dtcxzyw/WorkSpace/Projects/compilers/llvm-opt-benchmark/bench/libquic/libquic/src/net/spdy/hpack/hpack_input_stream.cc\00", align 1

; Function Attrs: mustprogress nounwind uwtable
define available_externally noundef signext i8 @_ZNK4base16BasicStringPieceINSt7__cxx1112basic_stringIcSt11char_traitsIcESaIcEEEEixEm(ptr noundef nonnull align 8 dereferenceable(16) %0, i64 noundef %1) #0 align 2 {
  %3 = alloca ptr, align 8
  %4 = alloca i64, align 8
  store ptr %0, ptr %3, align 8, !tbaa !21
  store i64 %1, ptr %4, align 8, !tbaa !11
  %5 = load ptr, ptr %3, align 8
  %6 = getelementptr inbounds nuw %"class.base::BasicStringPiece", ptr %5, i32 0, i32 0
  %7 = load ptr, ptr %6, align 8, !tbaa !41
  %8 = load i64, ptr %4, align 8, !tbaa !11
  %9 = getelementptr inbounds nuw i8, ptr %7, i64 %8
  %10 = load i8, ptr %9, align 1, !tbaa !40
  ret i8 %10
}

; Function Attrs: mustprogress nounwind uwtable
define available_externally noundef zeroext i1 @_ZNK4base16BasicStringPieceINSt7__cxx1112basic_stringIcSt11char_traitsIcESaIcEEEE5emptyEv(ptr noundef nonnull align 8 dereferenceable(16) %0) #0 align 2 {
  %2 = alloca ptr, align 8
  store ptr %0, ptr %2, align 8, !tbaa !21
  %3 = load ptr, ptr %2, align 8
  %4 = getelementptr inbounds nuw %"class.base::BasicStringPiece", ptr %3, i32 0, i32 1
  %5 = load i64, ptr %4, align 8, !tbaa !23
  %6 = icmp eq i64 %5, 0
  ret i1 %6
}

; Function Attrs: mustprogress nounwind uwtable
define available_externally void @_ZN4base16BasicStringPieceINSt7__cxx1112basic_stringIcSt11char_traitsIcESaIcEEEE13remove_prefixEm(ptr noundef nonnull align 8 dereferenceable(16) %0, i64 noundef %1) #0 align 2 {
  %3 = alloca ptr, align 8
  %4 = alloca i64, align 8
  store ptr %0, ptr %3, align 8, !tbaa !21
  store i64 %1, ptr %4, align 8, !tbaa !11
  %5 = load ptr, ptr %3, align 8
  %6 = load i64, ptr %4, align 8, !tbaa !11
  %7 = getelementptr inbounds nuw %"class.base::BasicStringPiece", ptr %5, i32 0, i32 0
  %8 = load ptr, ptr %7, align 8, !tbaa !41
  %9 = getelementptr inbounds nuw i8, ptr %8, i64 %6
  store ptr %9, ptr %7, align 8, !tbaa !41
  %10 = load i64, ptr %4, align 8, !tbaa !11
  %11 = getelementptr inbounds nuw %"class.base::BasicStringPiece", ptr %5, i32 0, i32 1
  %12 = load i64, ptr %11, align 8, !tbaa !23
  %13 = sub i64 %12, %10
  store i64 %13, ptr %11, align 8, !tbaa !23
  ret void
}

; Function Attrs: mustprogress uwtable
define noundef zeroext i1 @_ZN3net16HpackInputStream13PeekNextOctetEPh(ptr noundef nonnull align 8 dereferenceable(33) %0, ptr noundef %1) #2 align 2 {
  %3 = alloca i1, align 1
  %4 = alloca ptr, align 8
  %5 = alloca ptr, align 8
  store ptr %0, ptr %4, align 8, !tbaa !3
  store ptr %1, ptr %5, align 8, !tbaa !9
  %6 = load ptr, ptr %4, align 8
  %7 = getelementptr inbounds nuw %"class.net::HpackInputStream", ptr %6, i32 0, i32 0
  %8 = call noundef zeroext i1 @_ZNK4base16BasicStringPieceINSt7__cxx1112basic_stringIcSt11char_traitsIcESaIcEEEE5emptyEv(ptr noundef nonnull align 8 dereferenceable(16) %7)
  br i1 %8, label %9, label %11

9:                                                ; preds = %2
  %10 = getelementptr inbounds nuw %"class.net::HpackInputStream", ptr %6, i32 0, i32 4
  store i8 1, ptr %10, align 8, !tbaa !20
  store i1 false, ptr %3, align 1
  br label %20

11:                                               ; preds = %2
  %12 = getelementptr inbounds nuw %"class.net::HpackInputStream", ptr %6, i32 0, i32 1
  %13 = load i64, ptr %12, align 8, !tbaa !13
  %14 = icmp ugt i64 %13, 0
  br i1 %14, label %15, label %16

15:                                               ; preds = %11
  store i1 false, ptr %3, align 1
  br label %20

16:                                               ; preds = %11
  %17 = getelementptr inbounds nuw %"class.net::HpackInputStream", ptr %6, i32 0, i32 0
  %18 = call noundef signext i8 @_ZNK4base16BasicStringPieceINSt7__cxx1112basic_stringIcSt11char_traitsIcESaIcEEEEixEm(ptr noundef nonnull align 8 dereferenceable(16) %17, i64 noundef 0)
  %19 = load ptr, ptr %5, align 8, !tbaa !9
  store i8 %18, ptr %19, align 1, !tbaa !40
  store i1 true, ptr %3, align 1
  br label %20

20:                                               ; preds = %16, %15, %9
  %21 = load i1, ptr %3, align 1
  ret i1 %21
}

; Function Attrs: mustprogress uwtable
define noundef zeroext i1 @_ZN3net16HpackInputStream15DecodeNextOctetEPh(ptr noundef nonnull align 8 dereferenceable(33) %0, ptr noundef %1) #2 align 2 {
  %3 = alloca i1, align 1
  %4 = alloca ptr, align 8
  %5 = alloca ptr, align 8
  store ptr %0, ptr %4, align 8, !tbaa !3
  store ptr %1, ptr %5, align 8, !tbaa !9
  %6 = load ptr, ptr %4, align 8
  %7 = load ptr, ptr %5, align 8, !tbaa !9
  %8 = call noundef zeroext i1 @_ZN3net16HpackInputStream13PeekNextOctetEPh(ptr noundef nonnull align 8 dereferenceable(33) %6, ptr noundef %7)
  br i1 %8, label %10, label %9

9:                                                ; preds = %2
  store i1 false, ptr %3, align 1
  br label %15

10:                                               ; preds = %2
  %11 = getelementptr inbounds nuw %"class.net::HpackInputStream", ptr %6, i32 0, i32 0
  call void @_ZN4base16BasicStringPieceINSt7__cxx1112basic_stringIcSt11char_traitsIcESaIcEEEE13remove_prefixEm(ptr noundef nonnull align 8 dereferenceable(16) %11, i64 noundef 1)
  %12 = getelementptr inbounds nuw %"class.net::HpackInputStream", ptr %6, i32 0, i32 3
  %13 = load i32, ptr %12, align 4, !tbaa !19
  %14 = add i32 %13, 1
  store i32 %14, ptr %12, align 4, !tbaa !19
  store i1 true, ptr %3, align 1
  br label %15

15:                                               ; preds = %10, %9
  %16 = load i1, ptr %3, align 1
  ret i1 %16
}

; Function Attrs: mustprogress nounwind uwtable
define linkonce_odr noundef nonnull align 8 dereferenceable(8) ptr @_ZN7logging10LogMessage6streamEv(ptr noundef nonnull align 8 dereferenceable(404) %0) #0 comdat align 2 {
  %2 = alloca ptr, align 8
  store ptr %0, ptr %2, align 8, !tbaa !34
  %3 = load ptr, ptr %2, align 8
  %4 = getelementptr inbounds nuw %"class.logging::LogMessage", ptr %3, i32 0, i32 2
  ret ptr %4
}

; Function Attrs: mustprogress nounwind uwtable
define linkonce_odr noundef ptr @_ZN7logging13CheckOpResult7messageB5cxx11Ev(ptr noundef nonnull align 8 dereferenceable(8) %0) #0 comdat align 2 {
  %2 = alloca ptr, align 8
  store ptr %0, ptr %2, align 8, !tbaa !28
  %3 = load ptr, ptr %2, align 8
  %4 = getelementptr inbounds nuw %"class.logging::CheckOpResult", ptr %3, i32 0, i32 0
  %5 = load ptr, ptr %4, align 8, !tbaa !32
  ret ptr %5
}

; Function Attrs: mustprogress nounwind uwtable
define linkonce_odr noundef zeroext i1 @_ZNK7logging13CheckOpResultcvbEv(ptr noundef nonnull align 8 dereferenceable(8) %0) #0 comdat align 2 {
  %2 = alloca ptr, align 8
  store ptr %0, ptr %2, align 8, !tbaa !28
  %3 = load ptr, ptr %2, align 8
  %4 = getelementptr inbounds nuw %"class.logging::CheckOpResult", ptr %3, i32 0, i32 0
  %5 = load ptr, ptr %4, align 8, !tbaa !32
  %6 = icmp ne ptr %5, null
  %7 = xor i1 %6, true
  ret i1 %7
}

; Function Attrs: mustprogress nounwind uwtable
define linkonce_odr void @_ZN7logging13CheckOpResultC2EPNSt7__cxx1112basic_stringIcSt11char_traitsIcESaIcEEE(ptr noundef nonnull align 8 dereferenceable(8) %0, ptr noundef %1) unnamed_addr #0 comdat align 2 {
  %3 = alloca ptr, align 8
  %4 = alloca ptr, align 8
  store ptr %0, ptr %3, align 8, !tbaa !28
  store ptr %1, ptr %4, align 8, !tbaa !30
  %5 = load ptr, ptr %3, align 8
  %6 = getelementptr inbounds nuw %"class.logging::CheckOpResult", ptr %5, i32 0, i32 0
  %7 = load ptr, ptr %4, align 8, !tbaa !30
  store ptr %7, ptr %6, align 8, !tbaa !32
  ret void
}

; Function Attrs: mustprogress uwtable
define noundef zeroext i1 @_ZN3net16HpackInputStream16DecodeNextUint32EPj(ptr noundef nonnull align 8 dereferenceable(33) %0, ptr noundef %1) #2 align 2 personality ptr @__gxx_personality_v0 {
  %3 = alloca i1, align 1
  %4 = alloca ptr, align 8
  %5 = alloca ptr, align 8
  %6 = alloca i64, align 8
  %7 = alloca %"class.logging::CheckOpResult", align 8
  %8 = alloca %"class.logging::LogMessage", align 8
  %9 = alloca ptr, align 8
  %10 = alloca i32, align 4
  %11 = alloca %"class.logging::CheckOpResult", align 8
  %12 = alloca %"class.logging::LogMessage", align 8
  %13 = alloca i8, align 1
  %14 = alloca i8, align 1
  %15 = alloca i32, align 4
  %16 = alloca i8, align 1
  %17 = alloca i64, align 8
  %18 = alloca i8, align 1
  %19 = alloca i32, align 4
  store ptr %0, ptr %4, align 8, !tbaa !3
  store ptr %1, ptr %5, align 8, !tbaa !38
  %20 = load ptr, ptr %4, align 8
  call void @llvm.lifetime.start.p0(i64 8, ptr %6) #13
  %21 = getelementptr inbounds nuw %"class.net::HpackInputStream", ptr %20, i32 0, i32 1
  %22 = load i64, ptr %21, align 8, !tbaa !13
  %23 = sub i64 8, %22
  store i64 %23, ptr %6, align 8, !tbaa !11
  call void @llvm.lifetime.start.p0(i64 8, ptr %7) #13
  call void @_ZN7logging13CheckOpResultC2EPNSt7__cxx1112basic_stringIcSt11char_traitsIcESaIcEEE(ptr noundef nonnull align 8 dereferenceable(8) %7, ptr noundef null)
  %24 = call noundef zeroext i1 @_ZNK7logging13CheckOpResultcvbEv(ptr noundef nonnull align 8 dereferenceable(8) %7)
  br i1 %24, label %25, label %26

25:                                               ; preds = %2
  br label %34

26:                                               ; preds = %2
  call void @llvm.lifetime.start.p0(i64 408, ptr %8) #13
  %27 = call noundef ptr @_ZN7logging13CheckOpResult7messageB5cxx11Ev(ptr noundef nonnull align 8 dereferenceable(8) %7)
  call void @_ZN7logging10LogMessageC1EPKciiPNSt7__cxx1112basic_stringIcSt11char_traitsIcESaIcEEE(ptr noundef nonnull align 8 dereferenceable(404) %8, ptr noundef @.str, i32 noundef 80, i32 noundef 0, ptr noundef %27)
  %28 = invoke noundef nonnull align 8 dereferenceable(8) ptr @_ZN7logging10LogMessage6streamEv(ptr noundef nonnull align 8 dereferenceable(404) %8)
          to label %29 unwind label %30

29:                                               ; preds = %26
  call void @_ZN7logging10LogMessageD1Ev(ptr noundef nonnull align 8 dereferenceable(404) %8) #13
  call void @llvm.lifetime.end.p0(i64 408, ptr %8) #13
  br label %34

30:                                               ; preds = %26
  %31 = landingpad { ptr, i32 }
          cleanup
  %32 = extractvalue { ptr, i32 } %31, 0
  store ptr %32, ptr %9, align 8
  %33 = extractvalue { ptr, i32 } %31, 1
  store i32 %33, ptr %10, align 4
  call void @_ZN7logging10LogMessageD1Ev(ptr noundef nonnull align 8 dereferenceable(404) %8) #13
  call void @llvm.lifetime.end.p0(i64 408, ptr %8) #13
  call void @llvm.lifetime.end.p0(i64 8, ptr %7) #13
  br label %130

34:                                               ; preds = %29, %25
  call void @llvm.lifetime.end.p0(i64 8, ptr %7) #13
  call void @llvm.lifetime.start.p0(i64 8, ptr %11) #13
  call void @_ZN7logging13CheckOpResultC2EPNSt7__cxx1112basic_stringIcSt11char_traitsIcESaIcEEE(ptr noundef nonnull align 8 dereferenceable(8) %11, ptr noundef null)
  %35 = call noundef zeroext i1 @_ZNK7logging13CheckOpResultcvbEv(ptr noundef nonnull align 8 dereferenceable(8) %11)
  br i1 %35, label %36, label %37

36:                                               ; preds = %34
  br label %45

37:                                               ; preds = %34
  call void @llvm.lifetime.start.p0(i64 408, ptr %12) #13
  %38 = call noundef ptr @_ZN7logging13CheckOpResult7messageB5cxx11Ev(ptr noundef nonnull align 8 dereferenceable(8) %11)
  call void @_ZN7logging10LogMessageC1EPKciiPNSt7__cxx1112basic_stringIcSt11char_traitsIcESaIcEEE(ptr noundef nonnull align 8 dereferenceable(404) %12, ptr noundef @.str, i32 noundef 81, i32 noundef 0, ptr noundef %38)
  %39 = invoke noundef nonnull align 8 dereferenceable(8) ptr @_ZN7logging10LogMessage6streamEv(ptr noundef nonnull align 8 dereferenceable(404) %12)
          to label %40 unwind label %41

40:                                               ; preds = %37
  call void @_ZN7logging10LogMessageD1Ev(ptr noundef nonnull align 8 dereferenceable(404) %12) #13
  call void @llvm.lifetime.end.p0(i64 408, ptr %12) #13
  br label %45

41:                                               ; preds = %37
  %42 = landingpad { ptr, i32 }
          cleanup
  %43 = extractvalue { ptr, i32 } %42, 0
  store ptr %43, ptr %9, align 8
  %44 = extractvalue { ptr, i32 } %42, 1
  store i32 %44, ptr %10, align 4
  call void @_ZN7logging10LogMessageD1Ev(ptr noundef nonnull align 8 dereferenceable(404) %12) #13
  call void @llvm.lifetime.end.p0(i64 408, ptr %12) #13
  call void @llvm.lifetime.end.p0(i64 8, ptr %11) #13
  br label %130

45:                                               ; preds = %40, %36
  call void @llvm.lifetime.end.p0(i64 8, ptr %11) #13
  %46 = getelementptr inbounds nuw %"class.net::HpackInputStream", ptr %20, i32 0, i32 1
  store i64 0, ptr %46, align 8, !tbaa !13
  %47 = load ptr, ptr %5, align 8, !tbaa !38
  store i32 0, ptr %47, align 4, !tbaa !24
  call void @llvm.lifetime.start.p0(i64 1, ptr %13) #13
  %48 = load i64, ptr %6, align 8, !tbaa !11
  %49 = trunc i64 %48 to i32
  %50 = shl i32 1, %49
  %51 = sub nsw i32 %50, 1
  %52 = trunc i32 %51 to i8
  store i8 %52, ptr %13, align 1, !tbaa !40
  call void @llvm.lifetime.start.p0(i64 1, ptr %14) #13
  store i8 0, ptr %14, align 1, !tbaa !40
  %53 = call noundef zeroext i1 @_ZN3net16HpackInputStream15DecodeNextOctetEPh(ptr noundef nonnull align 8 dereferenceable(33) %20, ptr noundef %14)
  br i1 %53, label %60, label %54

54:                                               ; preds = %45
  %55 = getelementptr inbounds nuw %"class.net::HpackInputStream", ptr %20, i32 0, i32 4
  %56 = load i8, ptr %55, align 8, !tbaa !20, !range !42, !noundef !43
  %57 = trunc i8 %56 to i1
  br i1 %57, label %59, label %58

58:                                               ; preds = %54
  br label %59

59:                                               ; preds = %58, %54
  store i1 false, ptr %3, align 1
  store i32 1, ptr %15, align 4
  br label %128

60:                                               ; preds = %45
  %61 = load i8, ptr %14, align 1, !tbaa !40
  %62 = zext i8 %61 to i32
  %63 = load i8, ptr %13, align 1, !tbaa !40
  %64 = zext i8 %63 to i32
  %65 = and i32 %62, %64
  %66 = load ptr, ptr %5, align 8, !tbaa !38
  store i32 %65, ptr %66, align 4, !tbaa !24
  call void @llvm.lifetime.start.p0(i64 1, ptr %16) #13
  %67 = load ptr, ptr %5, align 8, !tbaa !38
  %68 = load i32, ptr %67, align 4, !tbaa !24
  %69 = load i8, ptr %13, align 1, !tbaa !40
  %70 = zext i8 %69 to i32
  %71 = icmp eq i32 %68, %70
  %72 = zext i1 %71 to i8
  store i8 %72, ptr %16, align 1, !tbaa !44
  call void @llvm.lifetime.start.p0(i64 8, ptr %17) #13
  store i64 0, ptr %17, align 8, !tbaa !11
  br label %73

73:                                               ; preds = %122, %60
  %74 = load i8, ptr %16, align 1, !tbaa !44, !range !42, !noundef !43
  %75 = trunc i8 %74 to i1
  br i1 %75, label %76, label %79

76:                                               ; preds = %73
  %77 = load i64, ptr %17, align 8, !tbaa !11
  %78 = icmp ult i64 %77, 32
  br label %79

79:                                               ; preds = %76, %73
  %80 = phi i1 [ false, %73 ], [ %78, %76 ]
  br i1 %80, label %81, label %123

81:                                               ; preds = %79
  call void @llvm.lifetime.start.p0(i64 1, ptr %18) #13
  store i8 0, ptr %18, align 1, !tbaa !40
  %82 = call noundef zeroext i1 @_ZN3net16HpackInputStream15DecodeNextOctetEPh(ptr noundef nonnull align 8 dereferenceable(33) %20, ptr noundef %18)
  br i1 %82, label %89, label %83

83:                                               ; preds = %81
  %84 = getelementptr inbounds nuw %"class.net::HpackInputStream", ptr %20, i32 0, i32 4
  %85 = load i8, ptr %84, align 8, !tbaa !20, !range !42, !noundef !43
  %86 = trunc i8 %85 to i1
  br i1 %86, label %88, label %87

87:                                               ; preds = %83
  br label %88

88:                                               ; preds = %87, %83
  store i1 false, ptr %3, align 1
  store i32 1, ptr %15, align 4
  br label %120

89:                                               ; preds = %81
  %90 = load i8, ptr %18, align 1, !tbaa !40
  %91 = zext i8 %90 to i32
  %92 = and i32 %91, 128
  %93 = icmp ne i32 %92, 0
  %94 = zext i1 %93 to i8
  store i8 %94, ptr %16, align 1, !tbaa !44
  %95 = load i8, ptr %18, align 1, !tbaa !40
  %96 = zext i8 %95 to i32
  %97 = and i32 %96, 127
  %98 = trunc i32 %97 to i8
  store i8 %98, ptr %18, align 1, !tbaa !40
  call void @llvm.lifetime.start.p0(i64 4, ptr %19) #13
  %99 = load i8, ptr %18, align 1, !tbaa !40
  %100 = zext i8 %99 to i32
  %101 = load i64, ptr %17, align 8, !tbaa !11
  %102 = trunc i64 %101 to i32
  %103 = shl i32 %100, %102
  store i32 %103, ptr %19, align 4, !tbaa !24
  %104 = load i32, ptr %19, align 4, !tbaa !24
  %105 = load i64, ptr %17, align 8, !tbaa !11
  %106 = trunc i64 %105 to i32
  %107 = lshr i32 %104, %106
  %108 = load i8, ptr %18, align 1, !tbaa !40
  %109 = zext i8 %108 to i32
  %110 = icmp ne i32 %107, %109
  br i1 %110, label %111, label %112

111:                                              ; preds = %89
  store i1 false, ptr %3, align 1
  store i32 1, ptr %15, align 4
  br label %119

112:                                              ; preds = %89
  %113 = load i32, ptr %19, align 4, !tbaa !24
  %114 = load ptr, ptr %5, align 8, !tbaa !38
  %115 = load i32, ptr %114, align 4, !tbaa !24
  %116 = add i32 %115, %113
  store i32 %116, ptr %114, align 4, !tbaa !24
  %117 = load i64, ptr %17, align 8, !tbaa !11
  %118 = add i64 %117, 7
  store i64 %118, ptr %17, align 8, !tbaa !11
  store i32 0, ptr %15, align 4
  br label %119

119:                                              ; preds = %112, %111
  call void @llvm.lifetime.end.p0(i64 4, ptr %19) #13
  br label %120

120:                                              ; preds = %119, %88
  call void @llvm.lifetime.end.p0(i64 1, ptr %18) #13
  %121 = load i32, ptr %15, align 4
  switch i32 %121, label %127 [
    i32 0, label %122
  ]

122:                                              ; preds = %120
  br label %73, !llvm.loop !45

123:                                              ; preds = %79
  %124 = load i8, ptr %16, align 1, !tbaa !44, !range !42, !noundef !43
  %125 = trunc i8 %124 to i1
  %126 = xor i1 %125, true
  store i1 %126, ptr %3, align 1
  store i32 1, ptr %15, align 4
  br label %127

127:                                              ; preds = %123, %120
  call void @llvm.lifetime.end.p0(i64 8, ptr %17) #13
  call void @llvm.lifetime.end.p0(i64 1, ptr %16) #13
  br label %128

128:                                              ; preds = %127, %59
  call void @llvm.lifetime.end.p0(i64 1, ptr %14) #13
  call void @llvm.lifetime.end.p0(i64 1, ptr %13) #13
  call void @llvm.lifetime.end.p0(i64 8, ptr %6) #13
  %129 = load i1, ptr %3, align 1
  ret i1 %129

130:                                              ; preds = %41, %30
  call void @llvm.lifetime.end.p0(i64 8, ptr %6) #13
  br label %131

131:                                              ; preds = %130
  %132 = load ptr, ptr %9, align 8
  %133 = load i32, ptr %10, align 4
  %134 = insertvalue { ptr, i32 } poison, ptr %132, 0
  %135 = insertvalue { ptr, i32 } %134, i32 %133, 1
  resume { ptr, i32 } %135
}