; Function Attrs: mustprogress nofree norecurse nosync nounwind memory(read, argmem: readwrite, inaccessiblemem: none) uwtable
define noundef zeroext i1 @_ZN3net16HpackInputStream16DecodeNextUint32EPj(ptr noundef nonnull align 8 captures(none) dereferenceable(33) %0, ptr noundef captures(none) initializes((0, 4)) %1) local_unnamed_addr #7 align 2 personality ptr @__gxx_personality_v0 {
  %3 = getelementptr inbounds nuw i8, ptr %0, i64 16
  %4 = load i64, ptr %3, align 8, !tbaa !16
  store i64 0, ptr %3, align 8, !tbaa !16
  store i32 0, ptr %1, align 4, !tbaa !19
  %5 = getelementptr inbounds nuw i8, ptr %0, i64 8
  %6 = load i64, ptr %5, align 8, !tbaa !10
  %7 = icmp eq i64 %6, 0
  br i1 %7, label %_ZN3net16HpackInputStream15DecodeNextOctetEPh.exit, label %9

_ZN3net16HpackInputStream15DecodeNextOctetEPh.exit: ; preds = %2
  %8 = getelementptr inbounds nuw i8, ptr %0, i64 32
  store i8 1, ptr %8, align 8, !tbaa !12
  br label %.thread

9:                                                ; preds = %2
  %10 = load ptr, ptr %0, align 8, !tbaa !17
  %11 = load i8, ptr %10, align 1, !tbaa !18
  %12 = getelementptr inbounds nuw i8, ptr %10, i64 1
  store ptr %12, ptr %0, align 8, !tbaa !17
  %13 = add i64 %6, -1
  store i64 %13, ptr %5, align 8, !tbaa !10
  %14 = getelementptr inbounds nuw i8, ptr %0, i64 28
  %15 = load i32, ptr %14, align 4, !tbaa !20
  %16 = add i32 %15, 1
  store i32 %16, ptr %14, align 4, !tbaa !20
  %17 = trunc i64 %4 to i32
  %18 = sub i32 8, %17
  %notmask = shl nsw i32 -1, %18
  %19 = zext i8 %11 to i32
  %20 = and i32 %notmask, 255
  %21 = xor i32 %20, 255
  %22 = and i32 %21, %19
  store i32 %22, ptr %1, align 4, !tbaa !19
  %23 = icmp eq i32 %22, %21
  br i1 %23, label %.lr.ph, label %.thread

.lr.ph:                                           ; preds = %9
  %.promoted45 = load ptr, ptr %0, align 8
  %.promoted = load i64, ptr %5, align 8
  br label %24

24:                                               ; preds = %.lr.ph, %40
  %.01746 = phi i64 [ 0, %.lr.ph ], [ %43, %40 ]
  %25 = phi i64 [ %.promoted, %.lr.ph ], [ %32, %40 ]
  %26 = phi ptr [ %.promoted45, %.lr.ph ], [ %31, %40 ]
  %27 = icmp eq i64 %25, 0
  br i1 %27, label %_ZN3net16HpackInputStream15DecodeNextOctetEPh.exit27, label %29

_ZN3net16HpackInputStream15DecodeNextOctetEPh.exit27: ; preds = %24
  %28 = getelementptr inbounds nuw i8, ptr %0, i64 32
  store i8 1, ptr %28, align 8, !tbaa !12
  br label %.thread

29:                                               ; preds = %24
  %30 = load i8, ptr %26, align 1, !tbaa !18
  %31 = getelementptr inbounds nuw i8, ptr %26, i64 1
  store ptr %31, ptr %0, align 8, !tbaa !17
  %32 = add i64 %25, -1
  store i64 %32, ptr %5, align 8, !tbaa !10
  %33 = load i32, ptr %14, align 4, !tbaa !20
  %34 = add i32 %33, 1
  store i32 %34, ptr %14, align 4, !tbaa !20
  %35 = and i8 %30, 127
  %36 = zext nneg i8 %35 to i32
  %37 = trunc nuw nsw i64 %.01746 to i32
  %38 = shl i32 %36, %37
  %39 = lshr exact i32 %38, %37
  %.not = icmp eq i32 %39, %36
  br i1 %.not, label %40, label %.thread

40:                                               ; preds = %29
  %41 = load i32, ptr %1, align 4, !tbaa !19
  %42 = add i32 %41, %38
  store i32 %42, ptr %1, align 4, !tbaa !19
  %43 = add nuw nsw i64 %.01746, 7
  %44 = icmp slt i8 %30, 0
  %45 = icmp samesign ult i64 %.01746, 25
  %46 = select i1 %44, i1 %45, i1 false
  br i1 %46, label %24, label %._crit_edge.loopexit, !llvm.loop !21

._crit_edge.loopexit:                             ; preds = %40
  %47 = xor i1 %44, true
  br label %.thread

.thread:                                          ; preds = %29, %9, %._crit_edge.loopexit, %_ZN3net16HpackInputStream15DecodeNextOctetEPh.exit27, %_ZN3net16HpackInputStream15DecodeNextOctetEPh.exit
  %.0 = phi i1 [ false, %_ZN3net16HpackInputStream15DecodeNextOctetEPh.exit ], [ false, %_ZN3net16HpackInputStream15DecodeNextOctetEPh.exit27 ], [ true, %9 ], [ %47, %._crit_edge.loopexit ], [ false, %29 ]
  ret i1 %.0
}